program
+---vars
|   \---year (int)
+---proc
|   +---void input()
|   |
|   \---block
|       \---stat
|           \---stats
|               +---stat
|               |   \---"!"
|               |       \---112
|               +---stat
|               |   \---"!"
|               |       \---114
|               +---stat
|               |   \---"!"
|               |       \---105
|               +---stat
|               |   \---"!"
|               |       \---110
|               +---stat
|               |   \---"!"
|               |       \---116
|               +---stat
|               |   \---"!"
|               |       \---32
|               +---stat
|               |   \---"!"
|               |       \---116
|               +---stat
|               |   \---"!"
|               |       \---104
|               +---stat
|               |   \---"!"
|               |       \---101
|               +---stat
|               |   \---"!"
|               |       \---32
|               +---stat
|               |   \---"!"
|               |       \---99
|               +---stat
|               |   \---"!"
|               |       \---97
|               +---stat
|               |   \---"!"
|               |       \---108
|               +---stat
|               |   \---"!"
|               |       \---101
|               +---stat
|               |   \---"!"
|               |       \---110
|               +---stat
|               |   \---"!"
|               |       \---100
|               +---stat
|               |   \---"!"
|               |       \---97
|               +---stat
|               |   \---"!"
|               |       \---114
|               +---stat
|               |   \---"!"
|               |       \---32
|               +---stat
|               |   \---"!"
|               |       \---111
|               +---stat
|               |   \---"!"
|               |       \---102
|               +---stat
|               |   \---"!"
|               |       \---32
|               +---stat
|               |   \---"!"
|               |       \---105
|               +---stat
|               |   \---"!"
|               |       \---110
|               +---stat
|               |   \---"!"
|               |       \---112
|               +---stat
|               |   \---"!"
|               |       \---117
|               +---stat
|               |   \---"!"
|               |       \---116
|               +---stat
|               |   \---"!"
|               |       \---32
|               +---stat
|               |   \---"!"
|               |       \---121
|               +---stat
|               |   \---"!"
|               |       \---101
|               +---stat
|               |   \---"!"
|               |       \---97
|               +---stat
|               |   \---"!"
|               |       \---114
|               +---stat
|               |   \---"!"
|               |       \---58
|               \---stat
|                   \---"?"
|                       \---year (int)
+---proc
|   +---int isLeapYear(int year)
|   |
|   \---block
|       \---stat
|           \---stats
|               +---stat
|               |   \---if
|               |       +---cond
|               |       |   \---"||" (int)
|               |       |       +---"&&" (int)
|               |       |       |   +---"!=" (int)
|               |       |       |   |   +---"%" (int)
|               |       |       |   |   |   +---year (int)
|               |       |       |   |   |   |
|               |       |       |   |   |   \---100 (int)
|               |       |       |   |   |
|               |       |       |   |   \---0 (int)
|               |       |       |   |
|               |       |       |   \---"==" (int)
|               |       |       |       +---"%" (int)
|               |       |       |       |   +---year (int)
|               |       |       |       |   |
|               |       |       |       |   \---4 (int)
|               |       |       |       |
|               |       |       |       \---0 (int)
|               |       |       |
|               |       |       \---"==" (int)
|               |       |           +---"%" (int)
|               |       |           |   +---year (int)
|               |       |           |   |
|               |       |           |   \---400 (int)
|               |       |           |
|               |       |           \---0 (int)
|               |       \---then
|               |           \---stat
|               |               \---ret
|               |                   \---1 (int)
|               \---stat
|                   \---ret
|                       \---0 (int)
+---proc
|   +---int getFirstDayIdx(int year)
|   |
|   \---block
|       +---vars
|       |   +---baseYear (int)
|       |   |
|       |   +---daySum (int)
|       |   |
|       |   \---res (int)
|       \---stat
|           \---stats
|               +---stat
|               |   \---"="
|               |       +---baseYear (int)
|               |       |
|               |       \---1800 (int)
|               +---stat
|               |   \---"="
|               |       +---daySum (int)
|               |       |
|               |       \---0 (int)
|               +---stat
|               |   \---while
|               |       +---cond
|               |       |   \---"<" (int)
|               |       |       +---baseYear (int)
|               |       |       |
|               |       |       \---year (int)
|               |       \---loop
|               |           \---stats
|               |               +---stat
|               |               |   \---if
|               |               |       +---cond
|               |               |       |   \---call
|               |               |       |       +---callee
|               |               |       |       |   \---isLeapYear (int)
|               |               |       |       \---args
|               |               |       |           \---arg
|               |               |       |               \---baseYear (int)
|               |               |       +---then
|               |               |       |   \---stat
|               |               |       |       \---"="
|               |               |       |           +---daySum (int)
|               |               |       |           |
|               |               |       |           \---"+" (int)
|               |               |       |               +---daySum (int)
|               |               |       |               |
|               |               |       |               \---366 (int)
|               |               |       \---else
|               |               |           \---stat
|               |               |               \---"="
|               |               |                   +---daySum (int)
|               |               |                   |
|               |               |                   \---"+" (int)
|               |               |                       +---daySum (int)
|               |               |                       |
|               |               |                       \---365 (int)
|               |               \---stat
|               |                   \---"="
|               |                       +---baseYear (int)
|               |                       |
|               |                       \---"+" (int)
|               |                           +---baseYear (int)
|               |                           |
|               |                           \---1 (int)
|               +---stat
|               |   \---"="
|               |       +---res (int)
|               |       |
|               |       \---"%" (int)
|               |           +---() (int)
|               |           |   \---"+" (int)
|               |           |       +---"%" (int)
|               |           |       |   +---daySum (int)
|               |           |       |   |
|               |           |       |   \---7 (int)
|               |           |       |
|               |           |       \---3 (int)
|               |           |
|               |           \---7 (int)
|               +---stat
|               |   \---if
|               |       +---cond
|               |       |   \---"==" (int)
|               |       |       +---res (int)
|               |       |       |
|               |       |       \---0 (int)
|               |       \---then
|               |           \---stat
|               |               \---"="
|               |                   +---res (int)
|               |                   |
|               |                   \---7 (int)
|               \---stat
|                   \---ret
|                       \---res (int)
+---proc
|   +---void printSpace(int n)
|   |
|   \---block
|       +---vars
|       |   \---i (int)
|       \---stat
|           \---stats
|               +---stat
|               |   \---"="
|               |       +---i (int)
|               |       |
|               |       \---0 (int)
|               \---stat
|                   \---while
|                       +---cond
|                       |   \---"<" (int)
|                       |       +---i (int)
|                       |       |
|                       |       \---n (int)
|                       \---loop
|                           \---stats
|                               +---stat
|                               |   \---"!"
|                               |       \---32
|                               \---stat
|                                   \---"="
|                                       +---i (int)
|                                       |
|                                       \---"+" (int)
|                                           +---i (int)
|                                           |
|                                           \---1 (int)
+---proc
|   +---void print3Week()
|   |
|   \---block
|       \---stat
|           \---stats
|               +---stat
|               |   \---"!"
|               |       \---77
|               +---stat
|               |   \---"!"
|               |       \---111
|               +---stat
|               |   \---"!"
|               |       \---32
|               +---stat
|               |   \---"!"
|               |       \---84
|               +---stat
|               |   \---"!"
|               |       \---117
|               +---stat
|               |   \---"!"
|               |       \---32
|               +---stat
|               |   \---"!"
|               |       \---87
|               +---stat
|               |   \---"!"
|               |       \---101
|               +---stat
|               |   \---"!"
|               |       \---32
|               +---stat
|               |   \---"!"
|               |       \---84
|               +---stat
|               |   \---"!"
|               |       \---104
|               +---stat
|               |   \---"!"
|               |       \---32
|               +---stat
|               |   \---"!"
|               |       \---70
|               +---stat
|               |   \---"!"
|               |       \---114
|               +---stat
|               |   \---"!"
|               |       \---32
|               +---stat
|               |   \---"!"
|               |       \---83
|               +---stat
|               |   \---"!"
|               |       \---97
|               +---stat
|               |   \---"!"
|               |       \---32
|               +---stat
|               |   \---"!"
|               |       \---83
|               +---stat
|               |   \---"!"
|               |       \---117
|               +---stat
|               |   \---call
|               |       +---callee
|               |       |   \---printSpace (void)
|               |       \---args
|               |           \---arg
|               |               \---3 (int)
|               +---stat
|               |   \---"!"
|               |       \---77
|               +---stat
|               |   \---"!"
|               |       \---111
|               +---stat
|               |   \---"!"
|               |       \---32
|               +---stat
|               |   \---"!"
|               |       \---84
|               +---stat
|               |   \---"!"
|               |       \---117
|               +---stat
|               |   \---"!"
|               |       \---32
|               +---stat
|               |   \---"!"
|               |       \---87
|               +---stat
|               |   \---"!"
|               |       \---101
|               +---stat
|               |   \---"!"
|               |       \---32
|               +---stat
|               |   \---"!"
|               |       \---84
|               +---stat
|               |   \---"!"
|               |       \---104
|               +---stat
|               |   \---"!"
|               |       \---32
|               +---stat
|               |   \---"!"
|               |       \---70
|               +---stat
|               |   \---"!"
|               |       \---114
|               +---stat
|               |   \---"!"
|               |       \---32
|               +---stat
|               |   \---"!"
|               |       \---83
|               +---stat
|               |   \---"!"
|               |       \---97
|               +---stat
|               |   \---"!"
|               |       \---32
|               +---stat
|               |   \---"!"
|               |       \---83
|               +---stat
|               |   \---"!"
|               |       \---117
|               +---stat
|               |   \---call
|               |       +---callee
|               |       |   \---printSpace (void)
|               |       \---args
|               |           \---arg
|               |               \---3 (int)
|               +---stat
|               |   \---"!"
|               |       \---77
|               +---stat
|               |   \---"!"
|               |       \---111
|               +---stat
|               |   \---"!"
|               |       \---32
|               +---stat
|               |   \---"!"
|               |       \---84
|               +---stat
|               |   \---"!"
|               |       \---117
|               +---stat
|               |   \---"!"
|               |       \---32
|               +---stat
|               |   \---"!"
|               |       \---87
|               +---stat
|               |   \---"!"
|               |       \---101
|               +---stat
|               |   \---"!"
|               |       \---32
|               +---stat
|               |   \---"!"
|               |       \---84
|               +---stat
|               |   \---"!"
|               |       \---104
|               +---stat
|               |   \---"!"
|               |       \---32
|               +---stat
|               |   \---"!"
|               |       \---70
|               +---stat
|               |   \---"!"
|               |       \---114
|               +---stat
|               |   \---"!"
|               |       \---32
|               +---stat
|               |   \---"!"
|               |       \---83
|               +---stat
|               |   \---"!"
|               |       \---97
|               +---stat
|               |   \---"!"
|               |       \---32
|               +---stat
|               |   \---"!"
|               |       \---83
|               +---stat
|               |   \---"!"
|               |       \---117
|               +---stat
|               |   \---"!"
|               |       \---10
|               +---stat
|               |   \---"!"
|               |       \---45
|               +---stat
|               |   \---"!"
|               |       \---45
|               +---stat
|               |   \---"!"
|               |       \---32
|               +---stat
|               |   \---"!"
|               |       \---45
|               +---stat
|               |   \---"!"
|               |       \---45
|               +---stat
|               |   \---"!"
|               |       \---32
|               +---stat
|               |   \---"!"
|               |       \---45
|               +---stat
|               |   \---"!"
|               |       \---45
|               +---stat
|               |   \---"!"
|               |       \---32
|               +---stat
|               |   \---"!"
|               |       \---45
|               +---stat
|               |   \---"!"
|               |       \---45
|               +---stat
|               |   \---"!"
|               |       \---32
|               +---stat
|               |   \---"!"
|               |       \---45
|               +---stat
|               |   \---"!"
|               |       \---45
|               +---stat
|               |   \---"!"
|               |       \---32
|               +---stat
|               |   \---"!"
|               |       \---45
|               +---stat
|               |   \---"!"
|               |       \---45
|               +---stat
|               |   \---"!"
|               |       \---32
|               +---stat
|               |   \---"!"
|               |       \---45
|               +---stat
|               |   \---"!"
|               |       \---45
|               +---stat
|               |   \---call
|               |       +---callee
|               |       |   \---printSpace (void)
|               |       \---args
|               |           \---arg
|               |               \---3 (int)
|               +---stat
|               |   \---"!"
|               |       \---45
|               +---stat
|               |   \---"!"
|               |       \---45
|               +---stat
|               |   \---"!"
|               |       \---32
|               +---stat
|               |   \---"!"
|               |       \---45
|               +---stat
|               |   \---"!"
|               |       \---45
|               +---stat
|               |   \---"!"
|               |       \---32
|               +---stat
|               |   \---"!"
|               |       \---45
|               +---stat
|               |   \---"!"
|               |       \---45
|               +---stat
|               |   \---"!"
|               |       \---32
|               +---stat
|               |   \---"!"
|               |       \---45
|               +---stat
|               |   \---"!"
|               |       \---45
|               +---stat
|               |   \---"!"
|               |       \---32
|               +---stat
|               |   \---"!"
|               |       \---45
|               +---stat
|               |   \---"!"
|               |       \---45
|               +---stat
|               |   \---"!"
|               |       \---32
|               +---stat
|               |   \---"!"
|               |       \---45
|               +---stat
|               |   \---"!"
|               |       \---45
|               +---stat
|               |   \---"!"
|               |       \---32
|               +---stat
|               |   \---"!"
|               |       \---45
|               +---stat
|               |   \---"!"
|               |       \---45
|               +---stat
|               |   \---call
|               |       +---callee
|               |       |   \---printSpace (void)
|               |       \---args
|               |           \---arg
|               |               \---3 (int)
|               +---stat
|               |   \---"!"
|               |       \---45
|               +---stat
|               |   \---"!"
|               |       \---45
|               +---stat
|               |   \---"!"
|               |       \---32
|               +---stat
|               |   \---"!"
|               |       \---45
|               +---stat
|               |   \---"!"
|               |       \---45
|               +---stat
|               |   \---"!"
|               |       \---32
|               +---stat
|               |   \---"!"
|               |       \---45
|               +---stat
|               |   \---"!"
|               |       \---45
|               +---stat
|               |   \---"!"
|               |       \---32
|               +---stat
|               |   \---"!"
|               |       \---45
|               +---stat
|               |   \---"!"
|               |       \---45
|               +---stat
|               |   \---"!"
|               |       \---32
|               +---stat
|               |   \---"!"
|               |       \---45
|               +---stat
|               |   \---"!"
|               |       \---45
|               +---stat
|               |   \---"!"
|               |       \---32
|               +---stat
|               |   \---"!"
|               |       \---45
|               +---stat
|               |   \---"!"
|               |       \---45
|               +---stat
|               |   \---"!"
|               |       \---32
|               +---stat
|               |   \---"!"
|               |       \---45
|               +---stat
|               |   \---"!"
|               |       \---45
|               \---stat
|                   \---"!"
|                       \---10
+---proc
|   +---void printYearInfo(int year)
|   |
|   \---block
|       \---stat
|           \---stats
|               +---stat
|               |   \---"!"
|               |       \---10
|               +---stat
|               |   \---call
|               |       +---callee
|               |       |   \---printSpace (void)
|               |       \---args
|               |           \---arg
|               |               \---31 (int)
|               +---stat
|               |   \---"!"
|               |       \---year (int)
|               +---stat
|               |   \---"!"
|               |       \---10
|               +---stat
|               |   \---call
|               |       +---callee
|               |       |   \---printSpace (void)
|               |       \---args
|               |           \---arg
|               |               \---31 (int)
|               +---stat
|               |   \---"!"
|               |       \---45
|               +---stat
|               |   \---"!"
|               |       \---45
|               +---stat
|               |   \---"!"
|               |       \---45
|               +---stat
|               |   \---"!"
|               |       \---45
|               \---stat
|                   \---"!"
|                       \---10
+---proc
|   +---void printSeason(int n)
|   |
|   \---block
|       \---stat
|           \---stats
|               +---stat
|               |   \---if
|               |       +---cond
|               |       |   \---"==" (int)
|               |       |       +---n (int)
|               |       |       |
|               |       |       \---0 (int)
|               |       \---then
|               |           \---stat
|               |               \---stats
|               |                   +---stat
|               |                   |   \---call
|               |                   |       +---callee
|               |                   |       |   \---printSpace (void)
|               |                   |       \---args
|               |                   |           \---arg
|               |                   |               \---6 (int)
|               |                   +---stat
|               |                   |   \---"!"
|               |                   |       \---74
|               |                   +---stat
|               |                   |   \---"!"
|               |                   |       \---97
|               |                   +---stat
|               |                   |   \---"!"
|               |                   |       \---110
|               |                   +---stat
|               |                   |   \---"!"
|               |                   |       \---117
|               |                   +---stat
|               |                   |   \---"!"
|               |                   |       \---97
|               |                   +---stat
|               |                   |   \---"!"
|               |                   |       \---114
|               |                   +---stat
|               |                   |   \---"!"
|               |                   |       \---121
|               |                   +---stat
|               |                   |   \---call
|               |                   |       +---callee
|               |                   |       |   \---printSpace (void)
|               |                   |       \---args
|               |                   |           \---arg
|               |                   |               \---7 (int)
|               |                   +---stat
|               |                   |   \---call
|               |                   |       +---callee
|               |                   |       |   \---printSpace (void)
|               |                   |       \---args
|               |                   |           \---arg
|               |                   |               \---3 (int)
|               |                   +---stat
|               |                   |   \---call
|               |                   |       +---callee
|               |                   |       |   \---printSpace (void)
|               |                   |       \---args
|               |                   |           \---arg
|               |                   |               \---6 (int)
|               |                   +---stat
|               |                   |   \---"!"
|               |                   |       \---70
|               |                   +---stat
|               |                   |   \---"!"
|               |                   |       \---101
|               |                   +---stat
|               |                   |   \---"!"
|               |                   |       \---98
|               |                   +---stat
|               |                   |   \---"!"
|               |                   |       \---114
|               |                   +---stat
|               |                   |   \---"!"
|               |                   |       \---117
|               |                   +---stat
|               |                   |   \---"!"
|               |                   |       \---97
|               |                   +---stat
|               |                   |   \---"!"
|               |                   |       \---114
|               |                   +---stat
|               |                   |   \---"!"
|               |                   |       \---121
|               |                   +---stat
|               |                   |   \---call
|               |                   |       +---callee
|               |                   |       |   \---printSpace (void)
|               |                   |       \---args
|               |                   |           \---arg
|               |                   |               \---6 (int)
|               |                   +---stat
|               |                   |   \---call
|               |                   |       +---callee
|               |                   |       |   \---printSpace (void)
|               |                   |       \---args
|               |                   |           \---arg
|               |                   |               \---3 (int)
|               |                   +---stat
|               |                   |   \---call
|               |                   |       +---callee
|               |                   |       |   \---printSpace (void)
|               |                   |       \---args
|               |                   |           \---arg
|               |                   |               \---6 (int)
|               |                   +---stat
|               |                   |   \---"!"
|               |                   |       \---77
|               |                   +---stat
|               |                   |   \---"!"
|               |                   |       \---97
|               |                   +---stat
|               |                   |   \---"!"
|               |                   |       \---114
|               |                   +---stat
|               |                   |   \---"!"
|               |                   |       \---99
|               |                   +---stat
|               |                   |   \---"!"
|               |                   |       \---104
|               |                   +---stat
|               |                   |   \---"!"
|               |                   |       \---10
|               |                   +---stat
|               |                   |   \---call
|               |                   |       +---callee
|               |                   |       |   \---printSpace (void)
|               |                   |       \---args
|               |                   |           \---arg
|               |                   |               \---6 (int)
|               |                   +---stat
|               |                   |   \---"!"
|               |                   |       \---45
|               |                   +---stat
|               |                   |   \---"!"
|               |                   |       \---45
|               |                   +---stat
|               |                   |   \---"!"
|               |                   |       \---45
|               |                   +---stat
|               |                   |   \---"!"
|               |                   |       \---45
|               |                   +---stat
|               |                   |   \---"!"
|               |                   |       \---45
|               |                   +---stat
|               |                   |   \---"!"
|               |                   |       \---45
|               |                   +---stat
|               |                   |   \---"!"
|               |                   |       \---45
|               |                   +---stat
|               |                   |   \---call
|               |                   |       +---callee
|               |                   |       |   \---printSpace (void)
|               |                   |       \---args
|               |                   |           \---arg
|               |                   |               \---7 (int)
|               |                   +---stat
|               |                   |   \---call
|               |                   |       +---callee
|               |                   |       |   \---printSpace (void)
|               |                   |       \---args
|               |                   |           \---arg
|               |                   |               \---3 (int)
|               |                   +---stat
|               |                   |   \---call
|               |                   |       +---callee
|               |                   |       |   \---printSpace (void)
|               |                   |       \---args
|               |                   |           \---arg
|               |                   |               \---6 (int)
|               |                   +---stat
|               |                   |   \---"!"
|               |                   |       \---45
|               |                   +---stat
|               |                   |   \---"!"
|               |                   |       \---45
|               |                   +---stat
|               |                   |   \---"!"
|               |                   |       \---45
|               |                   +---stat
|               |                   |   \---"!"
|               |                   |       \---45
|               |                   +---stat
|               |                   |   \---"!"
|               |                   |       \---45
|               |                   +---stat
|               |                   |   \---"!"
|               |                   |       \---45
|               |                   +---stat
|               |                   |   \---"!"
|               |                   |       \---45
|               |                   +---stat
|               |                   |   \---"!"
|               |                   |       \---45
|               |                   +---stat
|               |                   |   \---call
|               |                   |       +---callee
|               |                   |       |   \---printSpace (void)
|               |                   |       \---args
|               |                   |           \---arg
|               |                   |               \---6 (int)
|               |                   +---stat
|               |                   |   \---call
|               |                   |       +---callee
|               |                   |       |   \---printSpace (void)
|               |                   |       \---args
|               |                   |           \---arg
|               |                   |               \---3 (int)
|               |                   +---stat
|               |                   |   \---call
|               |                   |       +---callee
|               |                   |       |   \---printSpace (void)
|               |                   |       \---args
|               |                   |           \---arg
|               |                   |               \---6 (int)
|               |                   +---stat
|               |                   |   \---"!"
|               |                   |       \---45
|               |                   +---stat
|               |                   |   \---"!"
|               |                   |       \---45
|               |                   +---stat
|               |                   |   \---"!"
|               |                   |       \---45
|               |                   +---stat
|               |                   |   \---"!"
|               |                   |       \---45
|               |                   +---stat
|               |                   |   \---"!"
|               |                   |       \---45
|               |                   \---stat
|               |                       \---"!"
|               |                           \---10
|               +---stat
|               |   \---if
|               |       +---cond
|               |       |   \---"==" (int)
|               |       |       +---n (int)
|               |       |       |
|               |       |       \---1 (int)
|               |       \---then
|               |           \---stat
|               |               \---stats
|               |                   +---stat
|               |                   |   \---call
|               |                   |       +---callee
|               |                   |       |   \---printSpace (void)
|               |                   |       \---args
|               |                   |           \---arg
|               |                   |               \---6 (int)
|               |                   +---stat
|               |                   |   \---"!"
|               |                   |       \---65
|               |                   +---stat
|               |                   |   \---"!"
|               |                   |       \---112
|               |                   +---stat
|               |                   |   \---"!"
|               |                   |       \---114
|               |                   +---stat
|               |                   |   \---"!"
|               |                   |       \---105
|               |                   +---stat
|               |                   |   \---"!"
|               |                   |       \---108
|               |                   +---stat
|               |                   |   \---call
|               |                   |       +---callee
|               |                   |       |   \---printSpace (void)
|               |                   |       \---args
|               |                   |           \---arg
|               |                   |               \---9 (int)
|               |                   +---stat
|               |                   |   \---call
|               |                   |       +---callee
|               |                   |       |   \---printSpace (void)
|               |                   |       \---args
|               |                   |           \---arg
|               |                   |               \---3 (int)
|               |                   +---stat
|               |                   |   \---call
|               |                   |       +---callee
|               |                   |       |   \---printSpace (void)
|               |                   |       \---args
|               |                   |           \---arg
|               |                   |               \---6 (int)
|               |                   +---stat
|               |                   |   \---"!"
|               |                   |       \---77
|               |                   +---stat
|               |                   |   \---"!"
|               |                   |       \---97
|               |                   +---stat
|               |                   |   \---"!"
|               |                   |       \---121
|               |                   +---stat
|               |                   |   \---call
|               |                   |       +---callee
|               |                   |       |   \---printSpace (void)
|               |                   |       \---args
|               |                   |           \---arg
|               |                   |               \---11 (int)
|               |                   +---stat
|               |                   |   \---call
|               |                   |       +---callee
|               |                   |       |   \---printSpace (void)
|               |                   |       \---args
|               |                   |           \---arg
|               |                   |               \---3 (int)
|               |                   +---stat
|               |                   |   \---call
|               |                   |       +---callee
|               |                   |       |   \---printSpace (void)
|               |                   |       \---args
|               |                   |           \---arg
|               |                   |               \---6 (int)
|               |                   +---stat
|               |                   |   \---"!"
|               |                   |       \---74
|               |                   +---stat
|               |                   |   \---"!"
|               |                   |       \---117
|               |                   +---stat
|               |                   |   \---"!"
|               |                   |       \---110
|               |                   +---stat
|               |                   |   \---"!"
|               |                   |       \---101
|               |                   +---stat
|               |                   |   \---"!"
|               |                   |       \---10
|               |                   +---stat
|               |                   |   \---call
|               |                   |       +---callee
|               |                   |       |   \---printSpace (void)
|               |                   |       \---args
|               |                   |           \---arg
|               |                   |               \---6 (int)
|               |                   +---stat
|               |                   |   \---"!"
|               |                   |       \---45
|               |                   +---stat
|               |                   |   \---"!"
|               |                   |       \---45
|               |                   +---stat
|               |                   |   \---"!"
|               |                   |       \---45
|               |                   +---stat
|               |                   |   \---"!"
|               |                   |       \---45
|               |                   +---stat
|               |                   |   \---"!"
|               |                   |       \---45
|               |                   +---stat
|               |                   |   \---call
|               |                   |       +---callee
|               |                   |       |   \---printSpace (void)
|               |                   |       \---args
|               |                   |           \---arg
|               |                   |               \---9 (int)
|               |                   +---stat
|               |                   |   \---call
|               |                   |       +---callee
|               |                   |       |   \---printSpace (void)
|               |                   |       \---args
|               |                   |           \---arg
|               |                   |               \---3 (int)
|               |                   +---stat
|               |                   |   \---call
|               |                   |       +---callee
|               |                   |       |   \---printSpace (void)
|               |                   |       \---args
|               |                   |           \---arg
|               |                   |               \---6 (int)
|               |                   +---stat
|               |                   |   \---"!"
|               |                   |       \---45
|               |                   +---stat
|               |                   |   \---"!"
|               |                   |       \---45
|               |                   +---stat
|               |                   |   \---"!"
|               |                   |       \---45
|               |                   +---stat
|               |                   |   \---call
|               |                   |       +---callee
|               |                   |       |   \---printSpace (void)
|               |                   |       \---args
|               |                   |           \---arg
|               |                   |               \---11 (int)
|               |                   +---stat
|               |                   |   \---call
|               |                   |       +---callee
|               |                   |       |   \---printSpace (void)
|               |                   |       \---args
|               |                   |           \---arg
|               |                   |               \---3 (int)
|               |                   +---stat
|               |                   |   \---call
|               |                   |       +---callee
|               |                   |       |   \---printSpace (void)
|               |                   |       \---args
|               |                   |           \---arg
|               |                   |               \---6 (int)
|               |                   +---stat
|               |                   |   \---"!"
|               |                   |       \---45
|               |                   +---stat
|               |                   |   \---"!"
|               |                   |       \---45
|               |                   +---stat
|               |                   |   \---"!"
|               |                   |       \---45
|               |                   +---stat
|               |                   |   \---"!"
|               |                   |       \---45
|               |                   \---stat
|               |                       \---"!"
|               |                           \---10
|               +---stat
|               |   \---if
|               |       +---cond
|               |       |   \---"==" (int)
|               |       |       +---n (int)
|               |       |       |
|               |       |       \---2 (int)
|               |       \---then
|               |           \---stat
|               |               \---stats
|               |                   +---stat
|               |                   |   \---call
|               |                   |       +---callee
|               |                   |       |   \---printSpace (void)
|               |                   |       \---args
|               |                   |           \---arg
|               |                   |               \---6 (int)
|               |                   +---stat
|               |                   |   \---"!"
|               |                   |       \---74
|               |                   +---stat
|               |                   |   \---"!"
|               |                   |       \---117
|               |                   +---stat
|               |                   |   \---"!"
|               |                   |       \---108
|               |                   +---stat
|               |                   |   \---"!"
|               |                   |       \---121
|               |                   +---stat
|               |                   |   \---call
|               |                   |       +---callee
|               |                   |       |   \---printSpace (void)
|               |                   |       \---args
|               |                   |           \---arg
|               |                   |               \---10 (int)
|               |                   +---stat
|               |                   |   \---call
|               |                   |       +---callee
|               |                   |       |   \---printSpace (void)
|               |                   |       \---args
|               |                   |           \---arg
|               |                   |               \---3 (int)
|               |                   +---stat
|               |                   |   \---call
|               |                   |       +---callee
|               |                   |       |   \---printSpace (void)
|               |                   |       \---args
|               |                   |           \---arg
|               |                   |               \---6 (int)
|               |                   +---stat
|               |                   |   \---"!"
|               |                   |       \---65
|               |                   +---stat
|               |                   |   \---"!"
|               |                   |       \---117
|               |                   +---stat
|               |                   |   \---"!"
|               |                   |       \---103
|               |                   +---stat
|               |                   |   \---"!"
|               |                   |       \---117
|               |                   +---stat
|               |                   |   \---"!"
|               |                   |       \---115
|               |                   +---stat
|               |                   |   \---"!"
|               |                   |       \---116
|               |                   +---stat
|               |                   |   \---call
|               |                   |       +---callee
|               |                   |       |   \---printSpace (void)
|               |                   |       \---args
|               |                   |           \---arg
|               |                   |               \---8 (int)
|               |                   +---stat
|               |                   |   \---call
|               |                   |       +---callee
|               |                   |       |   \---printSpace (void)
|               |                   |       \---args
|               |                   |           \---arg
|               |                   |               \---3 (int)
|               |                   +---stat
|               |                   |   \---call
|               |                   |       +---callee
|               |                   |       |   \---printSpace (void)
|               |                   |       \---args
|               |                   |           \---arg
|               |                   |               \---6 (int)
|               |                   +---stat
|               |                   |   \---"!"
|               |                   |       \---83
|               |                   +---stat
|               |                   |   \---"!"
|               |                   |       \---101
|               |                   +---stat
|               |                   |   \---"!"
|               |                   |       \---112
|               |                   +---stat
|               |                   |   \---"!"
|               |                   |       \---116
|               |                   +---stat
|               |                   |   \---"!"
|               |                   |       \---101
|               |                   +---stat
|               |                   |   \---"!"
|               |                   |       \---109
|               |                   +---stat
|               |                   |   \---"!"
|               |                   |       \---98
|               |                   +---stat
|               |                   |   \---"!"
|               |                   |       \---101
|               |                   +---stat
|               |                   |   \---"!"
|               |                   |       \---114
|               |                   +---stat
|               |                   |   \---"!"
|               |                   |       \---10
|               |                   +---stat
|               |                   |   \---call
|               |                   |       +---callee
|               |                   |       |   \---printSpace (void)
|               |                   |       \---args
|               |                   |           \---arg
|               |                   |               \---6 (int)
|               |                   +---stat
|               |                   |   \---"!"
|               |                   |       \---45
|               |                   +---stat
|               |                   |   \---"!"
|               |                   |       \---45
|               |                   +---stat
|               |                   |   \---"!"
|               |                   |       \---45
|               |                   +---stat
|               |                   |   \---"!"
|               |                   |       \---45
|               |                   +---stat
|               |                   |   \---call
|               |                   |       +---callee
|               |                   |       |   \---printSpace (void)
|               |                   |       \---args
|               |                   |           \---arg
|               |                   |               \---10 (int)
|               |                   +---stat
|               |                   |   \---call
|               |                   |       +---callee
|               |                   |       |   \---printSpace (void)
|               |                   |       \---args
|               |                   |           \---arg
|               |                   |               \---3 (int)
|               |                   +---stat
|               |                   |   \---call
|               |                   |       +---callee
|               |                   |       |   \---printSpace (void)
|               |                   |       \---args
|               |                   |           \---arg
|               |                   |               \---6 (int)
|               |                   +---stat
|               |                   |   \---"!"
|               |                   |       \---45
|               |                   +---stat
|               |                   |   \---"!"
|               |                   |       \---45
|               |                   +---stat
|               |                   |   \---"!"
|               |                   |       \---45
|               |                   +---stat
|               |                   |   \---"!"
|               |                   |       \---45
|               |                   +---stat
|               |                   |   \---"!"
|               |                   |       \---45
|               |                   +---stat
|               |                   |   \---"!"
|               |                   |       \---45
|               |                   +---stat
|               |                   |   \---call
|               |                   |       +---callee
|               |                   |       |   \---printSpace (void)
|               |                   |       \---args
|               |                   |           \---arg
|               |                   |               \---8 (int)
|               |                   +---stat
|               |                   |   \---call
|               |                   |       +---callee
|               |                   |       |   \---printSpace (void)
|               |                   |       \---args
|               |                   |           \---arg
|               |                   |               \---3 (int)
|               |                   +---stat
|               |                   |   \---call
|               |                   |       +---callee
|               |                   |       |   \---printSpace (void)
|               |                   |       \---args
|               |                   |           \---arg
|               |                   |               \---6 (int)
|               |                   +---stat
|               |                   |   \---"!"
|               |                   |       \---45
|               |                   +---stat
|               |                   |   \---"!"
|               |                   |       \---45
|               |                   +---stat
|               |                   |   \---"!"
|               |                   |       \---45
|               |                   +---stat
|               |                   |   \---"!"
|               |                   |       \---45
|               |                   +---stat
|               |                   |   \---"!"
|               |                   |       \---45
|               |                   +---stat
|               |                   |   \---"!"
|               |                   |       \---45
|               |                   +---stat
|               |                   |   \---"!"
|               |                   |       \---45
|               |                   +---stat
|               |                   |   \---"!"
|               |                   |       \---45
|               |                   +---stat
|               |                   |   \---"!"
|               |                   |       \---45
|               |                   \---stat
|               |                       \---"!"
|               |                           \---10
|               +---stat
|               |   \---if
|               |       +---cond
|               |       |   \---"==" (int)
|               |       |       +---n (int)
|               |       |       |
|               |       |       \---3 (int)
|               |       \---then
|               |           \---stat
|               |               \---stats
|               |                   +---stat
|               |                   |   \---call
|               |                   |       +---callee
|               |                   |       |   \---printSpace (void)
|               |                   |       \---args
|               |                   |           \---arg
|               |                   |               \---6 (int)
|               |                   +---stat
|               |                   |   \---"!"
|               |                   |       \---79
|               |                   +---stat
|               |                   |   \---"!"
|               |                   |       \---99
|               |                   +---stat
|               |                   |   \---"!"
|               |                   |       \---116
|               |                   +---stat
|               |                   |   \---"!"
|               |                   |       \---111
|               |                   +---stat
|               |                   |   \---"!"
|               |                   |       \---98
|               |                   +---stat
|               |                   |   \---"!"
|               |                   |       \---101
|               |                   +---stat
|               |                   |   \---"!"
|               |                   |       \---114
|               |                   +---stat
|               |                   |   \---call
|               |                   |       +---callee
|               |                   |       |   \---printSpace (void)
|               |                   |       \---args
|               |                   |           \---arg
|               |                   |               \---7 (int)
|               |                   +---stat
|               |                   |   \---call
|               |                   |       +---callee
|               |                   |       |   \---printSpace (void)
|               |                   |       \---args
|               |                   |           \---arg
|               |                   |               \---3 (int)
|               |                   +---stat
|               |                   |   \---call
|               |                   |       +---callee
|               |                   |       |   \---printSpace (void)
|               |                   |       \---args
|               |                   |           \---arg
|               |                   |               \---6 (int)
|               |                   +---stat
|               |                   |   \---"!"
|               |                   |       \---78
|               |                   +---stat
|               |                   |   \---"!"
|               |                   |       \---111
|               |                   +---stat
|               |                   |   \---"!"
|               |                   |       \---118
|               |                   +---stat
|               |                   |   \---"!"
|               |                   |       \---101
|               |                   +---stat
|               |                   |   \---"!"
|               |                   |       \---109
|               |                   +---stat
|               |                   |   \---"!"
|               |                   |       \---98
|               |                   +---stat
|               |                   |   \---"!"
|               |                   |       \---101
|               |                   +---stat
|               |                   |   \---"!"
|               |                   |       \---114
|               |                   +---stat
|               |                   |   \---call
|               |                   |       +---callee
|               |                   |       |   \---printSpace (void)
|               |                   |       \---args
|               |                   |           \---arg
|               |                   |               \---6 (int)
|               |                   +---stat
|               |                   |   \---call
|               |                   |       +---callee
|               |                   |       |   \---printSpace (void)
|               |                   |       \---args
|               |                   |           \---arg
|               |                   |               \---3 (int)
|               |                   +---stat
|               |                   |   \---call
|               |                   |       +---callee
|               |                   |       |   \---printSpace (void)
|               |                   |       \---args
|               |                   |           \---arg
|               |                   |               \---6 (int)
|               |                   +---stat
|               |                   |   \---"!"
|               |                   |       \---68
|               |                   +---stat
|               |                   |   \---"!"
|               |                   |       \---101
|               |                   +---stat
|               |                   |   \---"!"
|               |                   |       \---99
|               |                   +---stat
|               |                   |   \---"!"
|               |                   |       \---101
|               |                   +---stat
|               |                   |   \---"!"
|               |                   |       \---109
|               |                   +---stat
|               |                   |   \---"!"
|               |                   |       \---98
|               |                   +---stat
|               |                   |   \---"!"
|               |                   |       \---101
|               |                   +---stat
|               |                   |   \---"!"
|               |                   |       \---114
|               |                   +---stat
|               |                   |   \---"!"
|               |                   |       \---10
|               |                   +---stat
|               |                   |   \---call
|               |                   |       +---callee
|               |                   |       |   \---printSpace (void)
|               |                   |       \---args
|               |                   |           \---arg
|               |                   |               \---6 (int)
|               |                   +---stat
|               |                   |   \---"!"
|               |                   |       \---45
|               |                   +---stat
|               |                   |   \---"!"
|               |                   |       \---45
|               |                   +---stat
|               |                   |   \---"!"
|               |                   |       \---45
|               |                   +---stat
|               |                   |   \---"!"
|               |                   |       \---45
|               |                   +---stat
|               |                   |   \---"!"
|               |                   |       \---45
|               |                   +---stat
|               |                   |   \---"!"
|               |                   |       \---45
|               |                   +---stat
|               |                   |   \---"!"
|               |                   |       \---45
|               |                   +---stat
|               |                   |   \---call
|               |                   |       +---callee
|               |                   |       |   \---printSpace (void)
|               |                   |       \---args
|               |                   |           \---arg
|               |                   |               \---7 (int)
|               |                   +---stat
|               |                   |   \---call
|               |                   |       +---callee
|               |                   |       |   \---printSpace (void)
|               |                   |       \---args
|               |                   |           \---arg
|               |                   |               \---3 (int)
|               |                   +---stat
|               |                   |   \---call
|               |                   |       +---callee
|               |                   |       |   \---printSpace (void)
|               |                   |       \---args
|               |                   |           \---arg
|               |                   |               \---6 (int)
|               |                   +---stat
|               |                   |   \---"!"
|               |                   |       \---45
|               |                   +---stat
|               |                   |   \---"!"
|               |                   |       \---45
|               |                   +---stat
|               |                   |   \---"!"
|               |                   |       \---45
|               |                   +---stat
|               |                   |   \---"!"
|               |                   |       \---45
|               |                   +---stat
|               |                   |   \---"!"
|               |                   |       \---45
|               |                   +---stat
|               |                   |   \---"!"
|               |                   |       \---45
|               |                   +---stat
|               |                   |   \---"!"
|               |                   |       \---45
|               |                   +---stat
|               |                   |   \---"!"
|               |                   |       \---45
|               |                   +---stat
|               |                   |   \---call
|               |                   |       +---callee
|               |                   |       |   \---printSpace (void)
|               |                   |       \---args
|               |                   |           \---arg
|               |                   |               \---6 (int)
|               |                   +---stat
|               |                   |   \---call
|               |                   |       +---callee
|               |                   |       |   \---printSpace (void)
|               |                   |       \---args
|               |                   |           \---arg
|               |                   |               \---3 (int)
|               |                   +---stat
|               |                   |   \---call
|               |                   |       +---callee
|               |                   |       |   \---printSpace (void)
|               |                   |       \---args
|               |                   |           \---arg
|               |                   |               \---6 (int)
|               |                   +---stat
|               |                   |   \---"!"
|               |                   |       \---45
|               |                   +---stat
|               |                   |   \---"!"
|               |                   |       \---45
|               |                   +---stat
|               |                   |   \---"!"
|               |                   |       \---45
|               |                   +---stat
|               |                   |   \---"!"
|               |                   |       \---45
|               |                   +---stat
|               |                   |   \---"!"
|               |                   |       \---45
|               |                   +---stat
|               |                   |   \---"!"
|               |                   |       \---45
|               |                   +---stat
|               |                   |   \---"!"
|               |                   |       \---45
|               |                   +---stat
|               |                   |   \---"!"
|               |                   |       \---45
|               |                   \---stat
|               |                       \---"!"
|               |                           \---10
|               \---stat
|                   \---call
|                       +---callee
|                       |   \---print3Week (void)
|                       \---args
|                           \---void
+---proc
|   +---int getDays(int month)
|   |
|   \---block
|       \---stat
|           \---if
|               +---cond
|               |   \---"==" (int)
|               |       +---month (int)
|               |       |
|               |       \---2 (int)
|               +---then
|               |   \---stat
|               |       \---if
|               |           +---cond
|               |           |   \---call
|               |           |       +---callee
|               |           |       |   \---isLeapYear (int)
|               |           |       \---args
|               |           |           \---arg
|               |           |               \---year (int)
|               |           +---then
|               |           |   \---stat
|               |           |       \---ret
|               |           |           \---29 (int)
|               |           \---else
|               |               \---stat
|               |                   \---ret
|               |                       \---28 (int)
|               \---else
|                   \---stat
|                       \---if
|                           +---cond
|                           |   \---"||" (int)
|                           |       +---"||" (int)
|                           |       |   +---"||" (int)
|                           |       |   |   +---"==" (int)
|                           |       |   |   |   +---month (int)
|                           |       |   |   |   |
|                           |       |   |   |   \---4 (int)
|                           |       |   |   |
|                           |       |   |   \---"==" (int)
|                           |       |   |       +---month (int)
|                           |       |   |       |
|                           |       |   |       \---6 (int)
|                           |       |   |
|                           |       |   \---"==" (int)
|                           |       |       +---month (int)
|                           |       |       |
|                           |       |       \---9 (int)
|                           |       |
|                           |       \---"==" (int)
|                           |           +---month (int)
|                           |           |
|                           |           \---11 (int)
|                           +---then
|                           |   \---stat
|                           |       \---ret
|                           |           \---30 (int)
|                           \---else
|                               \---stat
|                                   \---ret
|                                       \---31 (int)
+---proc
|   +---void printCalendar()
|   |
|   \---block
|       +---vars
|       |   +---FirstDays (int)
|       |   |
|       |   +---SecondDays (int)
|       |   |
|       |   +---ThirdDays (int)
|       |   |
|       |   +---FirstCurDate (int)
|       |   |
|       |   +---SecondCurDate (int)
|       |   |
|       |   +---ThirdCurDate (int)
|       |   |
|       |   +---FirstDateIdx (int)
|       |   |
|       |   +---SecondDateIdx (int)
|       |   |
|       |   +---ThirdDateIdx (int)
|       |   |
|       |   +---FirstEnd (int)
|       |   |
|       |   +---SecondEnd (int)
|       |   |
|       |   +---ThirdEnd (int)
|       |   |
|       |   \---i (int)
|       \---stat
|           \---stats
|               +---stat
|               |   \---"="
|               |       +---i (int)
|               |       |
|               |       \---0 (int)
|               +---stat
|               |   \---call
|               |       +---callee
|               |       |   \---printYearInfo (void)
|               |       \---args
|               |           \---arg
|               |               \---year (int)
|               \---stat
|                   \---while
|                       +---cond
|                       |   \---"<" (int)
|                       |       +---i (int)
|                       |       |
|                       |       \---4 (int)
|                       \---loop
|                           \---stats
|                               +---stat
|                               |   \---call
|                               |       +---callee
|                               |       |   \---printSeason (void)
|                               |       \---args
|                               |           \---arg
|                               |               \---i (int)
|                               +---stat
|                               |   \---"="
|                               |       +---FirstDays (int)
|                               |       |
|                               |       \---call
|                               |           +---callee
|                               |           |   \---getDays (int)
|                               |           \---args
|                               |               \---arg
|                               |                   \---"+" (int)
|                               |                       +---"*" (int)
|                               |                       |   +---i (int)
|                               |                       |   |
|                               |                       |   \---3 (int)
|                               |                       |
|                               |                       \---1 (int)
|                               +---stat
|                               |   \---"="
|                               |       +---SecondDays (int)
|                               |       |
|                               |       \---call
|                               |           +---callee
|                               |           |   \---getDays (int)
|                               |           \---args
|                               |               \---arg
|                               |                   \---"+" (int)
|                               |                       +---"*" (int)
|                               |                       |   +---i (int)
|                               |                       |   |
|                               |                       |   \---3 (int)
|                               |                       |
|                               |                       \---2 (int)
|                               +---stat
|                               |   \---"="
|                               |       +---ThirdDays (int)
|                               |       |
|                               |       \---call
|                               |           +---callee
|                               |           |   \---getDays (int)
|                               |           \---args
|                               |               \---arg
|                               |                   \---"+" (int)
|                               |                       +---"*" (int)
|                               |                       |   +---i (int)
|                               |                       |   |
|                               |                       |   \---3 (int)
|                               |                       |
|                               |                       \---3 (int)
|                               +---stat
|                               |   \---"="
|                               |       +---FirstCurDate (int)
|                               |       |
|                               |       \---1 (int)
|                               +---stat
|                               |   \---"="
|                               |       +---SecondCurDate (int)
|                               |       |
|                               |       \---1 (int)
|                               +---stat
|                               |   \---"="
|                               |       +---ThirdCurDate (int)
|                               |       |
|                               |       \---1 (int)
|                               +---stat
|                               |   \---if
|                               |       +---cond
|                               |       |   \---"==" (int)
|                               |       |       +---i (int)
|                               |       |       |
|                               |       |       \---0 (int)
|                               |       +---then
|                               |       |   \---stat
|                               |       |       \---"="
|                               |       |           +---FirstDateIdx (int)
|                               |       |           |
|                               |       |           \---call
|                               |       |               +---callee
|                               |       |               |   \---getFirstDayIdx (int)
|                               |       |               \---args
|                               |       |                   \---arg
|                               |       |                       \---year (int)
|                               |       \---else
|                               |           \---stat
|                               |               \---stats
|                               |                   +---stat
|                               |                   |   \---"="
|                               |                   |       +---FirstDateIdx (int)
|                               |                   |       |
|                               |                   |       \---"%" (int)
|                               |                   |           +---ThirdDateIdx (int)
|                               |                   |           |
|                               |                   |           \---7 (int)
|                               |                   \---stat
|                               |                       \---if
|                               |                           +---cond
|                               |                           |   \---"==" (int)
|                               |                           |       +---FirstDateIdx (int)
|                               |                           |       |
|                               |                           |       \---0 (int)
|                               |                           \---then
|                               |                               \---stat
|                               |                                   \---"="
|                               |                                       +---FirstDateIdx (int)
|                               |                                       |
|                               |                                       \---7 (int)
|                               +---stat
|                               |   \---"="
|                               |       +---SecondDateIdx (int)
|                               |       |
|                               |       \---"%" (int)
|                               |           +---() (int)
|                               |           |   \---"+" (int)
|                               |           |       +---FirstDateIdx (int)
|                               |           |       |
|                               |           |       \---FirstDays (int)
|                               |           |
|                               |           \---7 (int)
|                               +---stat
|                               |   \---if
|                               |       +---cond
|                               |       |   \---"==" (int)
|                               |       |       +---SecondDateIdx (int)
|                               |       |       |
|                               |       |       \---0 (int)
|                               |       \---then
|                               |           \---stat
|                               |               \---"="
|                               |                   +---SecondDateIdx (int)
|                               |                   |
|                               |                   \---7 (int)
|                               +---stat
|                               |   \---"="
|                               |       +---ThirdDateIdx (int)
|                               |       |
|                               |       \---"%" (int)
|                               |           +---() (int)
|                               |           |   \---"+" (int)
|                               |           |       +---SecondDateIdx (int)
|                               |           |       |
|                               |           |       \---SecondDays (int)
|                               |           |
|                               |           \---7 (int)
|                               +---stat
|                               |   \---if
|                               |       +---cond
|                               |       |   \---"==" (int)
|                               |       |       +---ThirdDateIdx (int)
|                               |       |       |
|                               |       |       \---0 (int)
|                               |       \---then
|                               |           \---stat
|                               |               \---"="
|                               |                   +---ThirdDateIdx (int)
|                               |                   |
|                               |                   \---7 (int)
|                               +---stat
|                               |   \---"="
|                               |       +---FirstEnd (int)
|                               |       |
|                               |       \---0 (int)
|                               +---stat
|                               |   \---"="
|                               |       +---SecondEnd (int)
|                               |       |
|                               |       \---0 (int)
|                               +---stat
|                               |   \---"="
|                               |       +---ThirdEnd (int)
|                               |       |
|                               |       \---0 (int)
|                               +---stat
|                               |   \---call
|                               |       +---callee
|                               |       |   \---printSpace (void)
|                               |       \---args
|                               |           \---arg
|                               |               \---"*" (int)
|                               |                   +---() (int)
|                               |                   |   \---"-" (int)
|                               |                   |       +---FirstDateIdx (int)
|                               |                   |       |
|                               |                   |       \---1 (int)
|                               |                   |
|                               |                   \---3 (int)
|                               +---stat
|                               |   \---while
|                               |       +---cond
|                               |       |   \---"<=" (int)
|                               |       |       +---FirstDateIdx (int)
|                               |       |       |
|                               |       |       \---7 (int)
|                               |       \---loop
|                               |           \---stats
|                               |               +---stat
|                               |               |   \---"!"
|                               |               |       \---FirstCurDate (int)
|                               |               +---stat
|                               |               |   \---call
|                               |               |       +---callee
|                               |               |       |   \---printSpace (void)
|                               |               |       \---args
|                               |               |           \---arg
|                               |               |               \---2 (int)
|                               |               +---stat
|                               |               |   \---"="
|                               |               |       +---FirstCurDate (int)
|                               |               |       |
|                               |               |       \---"+" (int)
|                               |               |           +---FirstCurDate (int)
|                               |               |           |
|                               |               |           \---1 (int)
|                               |               \---stat
|                               |                   \---"="
|                               |                       +---FirstDateIdx (int)
|                               |                       |
|                               |                       \---"+" (int)
|                               |                           +---FirstDateIdx (int)
|                               |                           |
|                               |                           \---1 (int)
|                               +---stat
|                               |   \---"="
|                               |       +---FirstDateIdx (int)
|                               |       |
|                               |       \---1 (int)
|                               +---stat
|                               |   \---call
|                               |       +---callee
|                               |       |   \---printSpace (void)
|                               |       \---args
|                               |           \---arg
|                               |               \---2 (int)
|                               +---stat
|                               |   \---call
|                               |       +---callee
|                               |       |   \---printSpace (void)
|                               |       \---args
|                               |           \---arg
|                               |               \---"*" (int)
|                               |                   +---() (int)
|                               |                   |   \---"-" (int)
|                               |                   |       +---SecondDateIdx (int)
|                               |                   |       |
|                               |                   |       \---1 (int)
|                               |                   |
|                               |                   \---3 (int)
|                               +---stat
|                               |   \---while
|                               |       +---cond
|                               |       |   \---"<=" (int)
|                               |       |       +---SecondDateIdx (int)
|                               |       |       |
|                               |       |       \---7 (int)
|                               |       \---loop
|                               |           \---stats
|                               |               +---stat
|                               |               |   \---"!"
|                               |               |       \---SecondCurDate (int)
|                               |               +---stat
|                               |               |   \---call
|                               |               |       +---callee
|                               |               |       |   \---printSpace (void)
|                               |               |       \---args
|                               |               |           \---arg
|                               |               |               \---2 (int)
|                               |               +---stat
|                               |               |   \---"="
|                               |               |       +---SecondCurDate (int)
|                               |               |       |
|                               |               |       \---"+" (int)
|                               |               |           +---SecondCurDate (int)
|                               |               |           |
|                               |               |           \---1 (int)
|                               |               \---stat
|                               |                   \---"="
|                               |                       +---SecondDateIdx (int)
|                               |                       |
|                               |                       \---"+" (int)
|                               |                           +---SecondDateIdx (int)
|                               |                           |
|                               |                           \---1 (int)
|                               +---stat
|                               |   \---"="
|                               |       +---SecondDateIdx (int)
|                               |       |
|                               |       \---1 (int)
|                               +---stat
|                               |   \---call
|                               |       +---callee
|                               |       |   \---printSpace (void)
|                               |       \---args
|                               |           \---arg
|                               |               \---2 (int)
|                               +---stat
|                               |   \---call
|                               |       +---callee
|                               |       |   \---printSpace (void)
|                               |       \---args
|                               |           \---arg
|                               |               \---"*" (int)
|                               |                   +---() (int)
|                               |                   |   \---"-" (int)
|                               |                   |       +---ThirdDateIdx (int)
|                               |                   |       |
|                               |                   |       \---1 (int)
|                               |                   |
|                               |                   \---3 (int)
|                               +---stat
|                               |   \---while
|                               |       +---cond
|                               |       |   \---"<=" (int)
|                               |       |       +---ThirdDateIdx (int)
|                               |       |       |
|                               |       |       \---7 (int)
|                               |       \---loop
|                               |           \---stats
|                               |               +---stat
|                               |               |   \---"!"
|                               |               |       \---ThirdCurDate (int)
|                               |               +---stat
|                               |               |   \---call
|                               |               |       +---callee
|                               |               |       |   \---printSpace (void)
|                               |               |       \---args
|                               |               |           \---arg
|                               |               |               \---2 (int)
|                               |               +---stat
|                               |               |   \---"="
|                               |               |       +---ThirdCurDate (int)
|                               |               |       |
|                               |               |       \---"+" (int)
|                               |               |           +---ThirdCurDate (int)
|                               |               |           |
|                               |               |           \---1 (int)
|                               |               \---stat
|                               |                   \---"="
|                               |                       +---ThirdDateIdx (int)
|                               |                       |
|                               |                       \---"+" (int)
|                               |                           +---ThirdDateIdx (int)
|                               |                           |
|                               |                           \---1 (int)
|                               +---stat
|                               |   \---"="
|                               |       +---ThirdDateIdx (int)
|                               |       |
|                               |       \---1 (int)
|                               +---stat
|                               |   \---"!"
|                               |       \---10
|                               +---stat
|                               |   \---while
|                               |       +---cond
|                               |       |   \---"||" (int)
|                               |       |       +---"||" (int)
|                               |       |       |   +---"!=" (int)
|                               |       |       |   |   +---FirstEnd (int)
|                               |       |       |   |   |
|                               |       |       |   |   \---1 (int)
|                               |       |       |   |
|                               |       |       |   \---"!=" (int)
|                               |       |       |       +---SecondEnd (int)
|                               |       |       |       |
|                               |       |       |       \---1 (int)
|                               |       |       |
|                               |       |       \---"!=" (int)
|                               |       |           +---ThirdEnd (int)
|                               |       |           |
|                               |       |           \---1 (int)
|                               |       \---loop
|                               |           \---stats
|                               |               +---stat
|                               |               |   \---if
|                               |               |       +---cond
|                               |               |       |   \---"!=" (int)
|                               |               |       |       +---FirstEnd (int)
|                               |               |       |       |
|                               |               |       |       \---1 (int)
|                               |               |       +---then
|                               |               |       |   \---stat
|                               |               |       |       \---stats
|                               |               |       |           +---stat
|                               |               |       |           |   \---while
|                               |               |       |           |       +---cond
|                               |               |       |           |       |   \---"&&" (int)
|                               |               |       |           |       |       +---"<=" (int)
|                               |               |       |           |       |       |   +---FirstCurDate (int)
|                               |               |       |           |       |       |   |
|                               |               |       |           |       |       |   \---FirstDays (int)
|                               |               |       |           |       |       |
|                               |               |       |           |       |       \---"<=" (int)
|                               |               |       |           |       |           +---FirstDateIdx (int)
|                               |               |       |           |       |           |
|                               |               |       |           |       |           \---7 (int)
|                               |               |       |           |       \---loop
|                               |               |       |           |           \---stats
|                               |               |       |           |               +---stat
|                               |               |       |           |               |   \---"!"
|                               |               |       |           |               |       \---FirstCurDate (int)
|                               |               |       |           |               +---stat
|                               |               |       |           |               |   \---if
|                               |               |       |           |               |       +---cond
|                               |               |       |           |               |       |   \---">" (int)
|                               |               |       |           |               |       |       +---FirstCurDate (int)
|                               |               |       |           |               |       |       |
|                               |               |       |           |               |       |       \---9 (int)
|                               |               |       |           |               |       +---then
|                               |               |       |           |               |       |   \---stat
|                               |               |       |           |               |       |       \---call
|                               |               |       |           |               |       |           +---callee
|                               |               |       |           |               |       |           |   \---printSpace (void)
|                               |               |       |           |               |       |           \---args
|                               |               |       |           |               |       |               \---arg
|                               |               |       |           |               |       |                   \---1 (int)
|                               |               |       |           |               |       \---else
|                               |               |       |           |               |           \---stat
|                               |               |       |           |               |               \---call
|                               |               |       |           |               |                   +---callee
|                               |               |       |           |               |                   |   \---printSpace (void)
|                               |               |       |           |               |                   \---args
|                               |               |       |           |               |                       \---arg
|                               |               |       |           |               |                           \---2 (int)
|                               |               |       |           |               +---stat
|                               |               |       |           |               |   \---if
|                               |               |       |           |               |       +---cond
|                               |               |       |           |               |       |   \---"==" (int)
|                               |               |       |           |               |       |       +---FirstCurDate (int)
|                               |               |       |           |               |       |       |
|                               |               |       |           |               |       |       \---FirstDays (int)
|                               |               |       |           |               |       \---then
|                               |               |       |           |               |           \---stat
|                               |               |       |           |               |               \---stats
|                               |               |       |           |               |                   +---stat
|                               |               |       |           |               |                   |   \---"="
|                               |               |       |           |               |                   |       +---FirstEnd (int)
|                               |               |       |           |               |                   |       |
|                               |               |       |           |               |                   |       \---1 (int)
|                               |               |       |           |               |                   \---stat
|                               |               |       |           |               |                       \---call
|                               |               |       |           |               |                           +---callee
|                               |               |       |           |               |                           |   \---printSpace (void)
|                               |               |       |           |               |                           \---args
|                               |               |       |           |               |                               \---arg
|                               |               |       |           |               |                                   \---"-" (int)
|                               |               |       |           |               |                                       +---"*" (int)
|                               |               |       |           |               |                                       |   +---() (int)
|                               |               |       |           |               |                                       |   |   \---"+" (int)
|                               |               |       |           |               |                                       |   |       +---"-" (int)
|                               |               |       |           |               |                                       |   |       |   +---7 (int)
|                               |               |       |           |               |                                       |   |       |   |
|                               |               |       |           |               |                                       |   |       |   \---FirstDateIdx (int)
|                               |               |       |           |               |                                       |   |       |
|                               |               |       |           |               |                                       |   |       \---1 (int)
|                               |               |       |           |               |                                       |   |
|                               |               |       |           |               |                                       |   \---3 (int)
|                               |               |       |           |               |                                       |
|                               |               |       |           |               |                                       \---1 (int)
|                               |               |       |           |               +---stat
|                               |               |       |           |               |   \---"="
|                               |               |       |           |               |       +---FirstCurDate (int)
|                               |               |       |           |               |       |
|                               |               |       |           |               |       \---"+" (int)
|                               |               |       |           |               |           +---FirstCurDate (int)
|                               |               |       |           |               |           |
|                               |               |       |           |               |           \---1 (int)
|                               |               |       |           |               \---stat
|                               |               |       |           |                   \---"="
|                               |               |       |           |                       +---FirstDateIdx (int)
|                               |               |       |           |                       |
|                               |               |       |           |                       \---"+" (int)
|                               |               |       |           |                           +---FirstDateIdx (int)
|                               |               |       |           |                           |
|                               |               |       |           |                           \---1 (int)
|                               |               |       |           \---stat
|                               |               |       |               \---if
|                               |               |       |                   +---cond
|                               |               |       |                   |   \---"==" (int)
|                               |               |       |                   |       +---FirstEnd (int)
|                               |               |       |                   |       |
|                               |               |       |                   |       \---0 (int)
|                               |               |       |                   \---then
|                               |               |       |                       \---stat
|                               |               |       |                           \---stats
|                               |               |       |                               +---stat
|                               |               |       |                               |   \---"="
|                               |               |       |                               |       +---FirstDateIdx (int)
|                               |               |       |                               |       |
|                               |               |       |                               |       \---1 (int)
|                               |               |       |                               \---stat
|                               |               |       |                                   \---call
|                               |               |       |                                       +---callee
|                               |               |       |                                       |   \---printSpace (void)
|                               |               |       |                                       \---args
|                               |               |       |                                           \---arg
|                               |               |       |                                               \---2 (int)
|                               |               |       \---else
|                               |               |           \---stat
|                               |               |               \---call
|                               |               |                   +---callee
|                               |               |                   |   \---printSpace (void)
|                               |               |                   \---args
|                               |               |                       \---arg
|                               |               |                           \---23 (int)
|                               |               +---stat
|                               |               |   \---if
|                               |               |       +---cond
|                               |               |       |   \---"!=" (int)
|                               |               |       |       +---SecondEnd (int)
|                               |               |       |       |
|                               |               |       |       \---1 (int)
|                               |               |       +---then
|                               |               |       |   \---stat
|                               |               |       |       \---stats
|                               |               |       |           +---stat
|                               |               |       |           |   \---while
|                               |               |       |           |       +---cond
|                               |               |       |           |       |   \---"&&" (int)
|                               |               |       |           |       |       +---"<=" (int)
|                               |               |       |           |       |       |   +---SecondCurDate (int)
|                               |               |       |           |       |       |   |
|                               |               |       |           |       |       |   \---SecondDays (int)
|                               |               |       |           |       |       |
|                               |               |       |           |       |       \---"<=" (int)
|                               |               |       |           |       |           +---SecondDateIdx (int)
|                               |               |       |           |       |           |
|                               |               |       |           |       |           \---7 (int)
|                               |               |       |           |       \---loop
|                               |               |       |           |           \---stats
|                               |               |       |           |               +---stat
|                               |               |       |           |               |   \---"!"
|                               |               |       |           |               |       \---SecondCurDate (int)
|                               |               |       |           |               +---stat
|                               |               |       |           |               |   \---if
|                               |               |       |           |               |       +---cond
|                               |               |       |           |               |       |   \---">" (int)
|                               |               |       |           |               |       |       +---SecondCurDate (int)
|                               |               |       |           |               |       |       |
|                               |               |       |           |               |       |       \---9 (int)
|                               |               |       |           |               |       +---then
|                               |               |       |           |               |       |   \---stat
|                               |               |       |           |               |       |       \---call
|                               |               |       |           |               |       |           +---callee
|                               |               |       |           |               |       |           |   \---printSpace (void)
|                               |               |       |           |               |       |           \---args
|                               |               |       |           |               |       |               \---arg
|                               |               |       |           |               |       |                   \---1 (int)
|                               |               |       |           |               |       \---else
|                               |               |       |           |               |           \---stat
|                               |               |       |           |               |               \---call
|                               |               |       |           |               |                   +---callee
|                               |               |       |           |               |                   |   \---printSpace (void)
|                               |               |       |           |               |                   \---args
|                               |               |       |           |               |                       \---arg
|                               |               |       |           |               |                           \---2 (int)
|                               |               |       |           |               +---stat
|                               |               |       |           |               |   \---if
|                               |               |       |           |               |       +---cond
|                               |               |       |           |               |       |   \---"==" (int)
|                               |               |       |           |               |       |       +---SecondCurDate (int)
|                               |               |       |           |               |       |       |
|                               |               |       |           |               |       |       \---SecondDays (int)
|                               |               |       |           |               |       \---then
|                               |               |       |           |               |           \---stat
|                               |               |       |           |               |               \---stats
|                               |               |       |           |               |                   +---stat
|                               |               |       |           |               |                   |   \---"="
|                               |               |       |           |               |                   |       +---SecondEnd (int)
|                               |               |       |           |               |                   |       |
|                               |               |       |           |               |                   |       \---1 (int)
|                               |               |       |           |               |                   \---stat
|                               |               |       |           |               |                       \---call
|                               |               |       |           |               |                           +---callee
|                               |               |       |           |               |                           |   \---printSpace (void)
|                               |               |       |           |               |                           \---args
|                               |               |       |           |               |                               \---arg
|                               |               |       |           |               |                                   \---"-" (int)
|                               |               |       |           |               |                                       +---"*" (int)
|                               |               |       |           |               |                                       |   +---() (int)
|                               |               |       |           |               |                                       |   |   \---"+" (int)
|                               |               |       |           |               |                                       |   |       +---"-" (int)
|                               |               |       |           |               |                                       |   |       |   +---7 (int)
|                               |               |       |           |               |                                       |   |       |   |
|                               |               |       |           |               |                                       |   |       |   \---SecondDateIdx (int)
|                               |               |       |           |               |                                       |   |       |
|                               |               |       |           |               |                                       |   |       \---1 (int)
|                               |               |       |           |               |                                       |   |
|                               |               |       |           |               |                                       |   \---3 (int)
|                               |               |       |           |               |                                       |
|                               |               |       |           |               |                                       \---1 (int)
|                               |               |       |           |               +---stat
|                               |               |       |           |               |   \---"="
|                               |               |       |           |               |       +---SecondCurDate (int)
|                               |               |       |           |               |       |
|                               |               |       |           |               |       \---"+" (int)
|                               |               |       |           |               |           +---SecondCurDate (int)
|                               |               |       |           |               |           |
|                               |               |       |           |               |           \---1 (int)
|                               |               |       |           |               \---stat
|                               |               |       |           |                   \---"="
|                               |               |       |           |                       +---SecondDateIdx (int)
|                               |               |       |           |                       |
|                               |               |       |           |                       \---"+" (int)
|                               |               |       |           |                           +---SecondDateIdx (int)
|                               |               |       |           |                           |
|                               |               |       |           |                           \---1 (int)
|                               |               |       |           \---stat
|                               |               |       |               \---if
|                               |               |       |                   +---cond
|                               |               |       |                   |   \---"==" (int)
|                               |               |       |                   |       +---SecondEnd (int)
|                               |               |       |                   |       |
|                               |               |       |                   |       \---0 (int)
|                               |               |       |                   \---then
|                               |               |       |                       \---stat
|                               |               |       |                           \---stats
|                               |               |       |                               +---stat
|                               |               |       |                               |   \---"="
|                               |               |       |                               |       +---SecondDateIdx (int)
|                               |               |       |                               |       |
|                               |               |       |                               |       \---1 (int)
|                               |               |       |                               \---stat
|                               |               |       |                                   \---call
|                               |               |       |                                       +---callee
|                               |               |       |                                       |   \---printSpace (void)
|                               |               |       |                                       \---args
|                               |               |       |                                           \---arg
|                               |               |       |                                               \---2 (int)
|                               |               |       \---else
|                               |               |           \---stat
|                               |               |               \---call
|                               |               |                   +---callee
|                               |               |                   |   \---printSpace (void)
|                               |               |                   \---args
|                               |               |                       \---arg
|                               |               |                           \---23 (int)
|                               |               +---stat
|                               |               |   \---if
|                               |               |       +---cond
|                               |               |       |   \---"!=" (int)
|                               |               |       |       +---ThirdEnd (int)
|                               |               |       |       |
|                               |               |       |       \---1 (int)
|                               |               |       \---then
|                               |               |           \---stat
|                               |               |               \---stats
|                               |               |                   +---stat
|                               |               |                   |   \---while
|                               |               |                   |       +---cond
|                               |               |                   |       |   \---"&&" (int)
|                               |               |                   |       |       +---"<=" (int)
|                               |               |                   |       |       |   +---ThirdCurDate (int)
|                               |               |                   |       |       |   |
|                               |               |                   |       |       |   \---ThirdDays (int)
|                               |               |                   |       |       |
|                               |               |                   |       |       \---"<=" (int)
|                               |               |                   |       |           +---ThirdDateIdx (int)
|                               |               |                   |       |           |
|                               |               |                   |       |           \---7 (int)
|                               |               |                   |       \---loop
|                               |               |                   |           \---stats
|                               |               |                   |               +---stat
|                               |               |                   |               |   \---"!"
|                               |               |                   |               |       \---ThirdCurDate (int)
|                               |               |                   |               +---stat
|                               |               |                   |               |   \---if
|                               |               |                   |               |       +---cond
|                               |               |                   |               |       |   \---">" (int)
|                               |               |                   |               |       |       +---ThirdCurDate (int)
|                               |               |                   |               |       |       |
|                               |               |                   |               |       |       \---9 (int)
|                               |               |                   |               |       +---then
|                               |               |                   |               |       |   \---stat
|                               |               |                   |               |       |       \---call
|                               |               |                   |               |       |           +---callee
|                               |               |                   |               |       |           |   \---printSpace (void)
|                               |               |                   |               |       |           \---args
|                               |               |                   |               |       |               \---arg
|                               |               |                   |               |       |                   \---1 (int)
|                               |               |                   |               |       \---else
|                               |               |                   |               |           \---stat
|                               |               |                   |               |               \---call
|                               |               |                   |               |                   +---callee
|                               |               |                   |               |                   |   \---printSpace (void)
|                               |               |                   |               |                   \---args
|                               |               |                   |               |                       \---arg
|                               |               |                   |               |                           \---2 (int)
|                               |               |                   |               +---stat
|                               |               |                   |               |   \---if
|                               |               |                   |               |       +---cond
|                               |               |                   |               |       |   \---"==" (int)
|                               |               |                   |               |       |       +---ThirdCurDate (int)
|                               |               |                   |               |       |       |
|                               |               |                   |               |       |       \---ThirdDays (int)
|                               |               |                   |               |       \---then
|                               |               |                   |               |           \---stat
|                               |               |                   |               |               \---"="
|                               |               |                   |               |                   +---ThirdEnd (int)
|                               |               |                   |               |                   |
|                               |               |                   |               |                   \---1 (int)
|                               |               |                   |               +---stat
|                               |               |                   |               |   \---"="
|                               |               |                   |               |       +---ThirdCurDate (int)
|                               |               |                   |               |       |
|                               |               |                   |               |       \---"+" (int)
|                               |               |                   |               |           +---ThirdCurDate (int)
|                               |               |                   |               |           |
|                               |               |                   |               |           \---1 (int)
|                               |               |                   |               \---stat
|                               |               |                   |                   \---"="
|                               |               |                   |                       +---ThirdDateIdx (int)
|                               |               |                   |                       |
|                               |               |                   |                       \---"+" (int)
|                               |               |                   |                           +---ThirdDateIdx (int)
|                               |               |                   |                           |
|                               |               |                   |                           \---1 (int)
|                               |               |                   \---stat
|                               |               |                       \---if
|                               |               |                           +---cond
|                               |               |                           |   \---"==" (int)
|                               |               |                           |       +---ThirdEnd (int)
|                               |               |                           |       |
|                               |               |                           |       \---0 (int)
|                               |               |                           \---then
|                               |               |                               \---stat
|                               |               |                                   \---stats
|                               |               |                                       \---stat
|                               |               |                                           \---"="
|                               |               |                                               +---ThirdDateIdx (int)
|                               |               |                                               |
|                               |               |                                               \---1 (int)
|                               |               \---stat
|                               |                   \---"!"
|                               |                       \---10
|                               +---stat
|                               |   \---"="
|                               |       +---i (int)
|                               |       |
|                               |       \---"+" (int)
|                               |           +---i (int)
|                               |           |
|                               |           \---1 (int)
|                               \---stat
|                                   \---"!"
|                                       \---10
\---stat
    \---stats
        +---stat
        |   \---call
        |       +---callee
        |       |   \---input (void)
        |       \---args
        |           \---void
        \---stat
            \---call
                +---callee
                |   \---printCalendar (void)
                \---args
                    \---void
